target datalayout = "e-m:e-p270:32:32-p271:32:32-p272:64:64-i64:64-i128:128-f80:128-n8:16:32:64-S128"
target triple = "x86_64-pc-linux-gnu"

; Function Attrs: nounwind uwtable
define internal void @set_status_by_pages(i32 noundef %0, ptr noundef %1, i32 noundef %2, i64 noundef %3) #0 {
  %5 = alloca i32, align 4
  %6 = alloca ptr, align 8
  %7 = alloca i32, align 4
  %8 = alloca i64, align 8
  %9 = alloca i64, align 8
  %10 = alloca i32, align 4
  %11 = alloca i32, align 4
  %12 = alloca i32, align 4
  %13 = alloca i64, align 8
  store i32 %0, ptr %5, align 4
  store ptr %1, ptr %6, align 8
  store i32 %2, ptr %7, align 4
  store i64 %3, ptr %8, align 8
  call void @llvm.lifetime.start.p0(i64 8, ptr %9) #8
  %14 = load ptr, ptr %6, align 8
  %15 = getelementptr inbounds i32, ptr %14, i64 0
  %16 = load i32, ptr %15, align 4
  %17 = call i64 @TransactionIdToPage(i32 noundef %16)
  store i64 %17, ptr %9, align 8
  call void @llvm.lifetime.start.p0(i64 4, ptr %10) #8
  store i32 0, ptr %10, align 4
  call void @llvm.lifetime.start.p0(i64 4, ptr %11) #8
  store i32 0, ptr %11, align 4
  br label %18

18:                                               ; preds = %43, %4
  %19 = load i32, ptr %11, align 4
  %20 = load i32, ptr %5, align 4
  %21 = icmp slt i32 %19, %20
  br i1 %21, label %22, label %54

22:                                               ; preds = %18
  call void @llvm.lifetime.start.p0(i64 4, ptr %12) #8
  store i32 0, ptr %12, align 4
  call void @llvm.lifetime.start.p0(i64 8, ptr %13) #8
  br label %23

23:                                               ; preds = %39, %22
  %24 = load ptr, ptr %6, align 8
  %25 = load i32, ptr %11, align 4
  %26 = sext i32 %25 to i64
  %27 = getelementptr inbounds i32, ptr %24, i64 %26
  %28 = load i32, ptr %27, align 4
  %29 = call i64 @TransactionIdToPage(i32 noundef %28)
  store i64 %29, ptr %13, align 8
  %30 = load i64, ptr %13, align 8
  %31 = load i64, ptr %9, align 8
  %32 = icmp ne i64 %30, %31
  br i1 %32, label %33, label %34

33:                                               ; preds = %23
  br label %43

34:                                               ; preds = %23
  %35 = load i32, ptr %12, align 4
  %36 = add i32 %35, 1
  store i32 %36, ptr %12, align 4
  %37 = load i32, ptr %11, align 4
  %38 = add i32 %37, 1
  store i32 %38, ptr %11, align 4
  br label %39

39:                                               ; preds = %34
  %40 = load i32, ptr %11, align 4
  %41 = load i32, ptr %5, align 4
  %42 = icmp slt i32 %40, %41
  br i1 %42, label %23, label %43, !llvm.loop !8

43:                                               ; preds = %39, %33
  %44 = load i32, ptr %12, align 4
  %45 = load ptr, ptr %6, align 8
  %46 = load i32, ptr %10, align 4
  %47 = sext i32 %46 to i64
  %48 = getelementptr inbounds i32, ptr %45, i64 %47
  %49 = load i32, ptr %7, align 4
  %50 = load i64, ptr %8, align 8
  %51 = load i64, ptr %9, align 8
  call void @TransactionIdSetPageStatus(i32 noundef 0, i32 noundef %44, ptr noundef %48, i32 noundef %49, i64 noundef %50, i64 noundef %51, i1 noundef zeroext false)
  %52 = load i32, ptr %11, align 4
  store i32 %52, ptr %10, align 4
  %53 = load i64, ptr %13, align 8
  store i64 %53, ptr %9, align 8
  call void @llvm.lifetime.end.p0(i64 8, ptr %13) #8
  call void @llvm.lifetime.end.p0(i64 4, ptr %12) #8
  br label %18, !llvm.loop !9

54:                                               ; preds = %18
  call void @llvm.lifetime.end.p0(i64 4, ptr %11) #8
  call void @llvm.lifetime.end.p0(i64 4, ptr %10) #8
  call void @llvm.lifetime.end.p0(i64 8, ptr %9) #8
  ret void
}

; Function Attrs: inlinehint nounwind uwtable
define internal i64 @TransactionIdToPage(i32 noundef %0) #2 {
  %2 = alloca i32, align 4
  store i32 %0, ptr %2, align 4
  %3 = load i32, ptr %2, align 4
  %4 = zext i32 %3 to i64
  %5 = sdiv i64 %4, 32768
  ret i64 %5
}

; Function Attrs: nounwind uwtable
define dso_local void @TransactionIdSetTreeStatus(i32 noundef %0, i32 noundef %1, ptr noundef %2, i32 noundef %3, i64 noundef %4) #0 {
  %6 = alloca i32, align 4
  %7 = alloca i32, align 4
  %8 = alloca ptr, align 8
  %9 = alloca i32, align 4
  %10 = alloca i64, align 8
  %11 = alloca i64, align 8
  %12 = alloca i32, align 4
  %13 = alloca i32, align 4
  store i32 %0, ptr %6, align 4
  store i32 %1, ptr %7, align 4
  store ptr %2, ptr %8, align 8
  store i32 %3, ptr %9, align 4
  store i64 %4, ptr %10, align 8
  call void @llvm.lifetime.start.p0(i64 8, ptr %11) #8
  %14 = load i32, ptr %6, align 4
  %15 = call i64 @TransactionIdToPage(i32 noundef %14)
  store i64 %15, ptr %11, align 8
  call void @llvm.lifetime.start.p0(i64 4, ptr %12) #8
  store i32 0, ptr %12, align 4
  br label %16

16:                                               ; preds = %31, %5
  %17 = load i32, ptr %12, align 4
  %18 = load i32, ptr %7, align 4
  %19 = icmp slt i32 %17, %18
  br i1 %19, label %20, label %34

20:                                               ; preds = %16
  %21 = load ptr, ptr %8, align 8
  %22 = load i32, ptr %12, align 4
  %23 = sext i32 %22 to i64
  %24 = getelementptr inbounds i32, ptr %21, i64 %23
  %25 = load i32, ptr %24, align 4
  %26 = call i64 @TransactionIdToPage(i32 noundef %25)
  %27 = load i64, ptr %11, align 8
  %28 = icmp ne i64 %26, %27
  br i1 %28, label %29, label %30

29:                                               ; preds = %20
  br label %34

30:                                               ; preds = %20
  br label %31

31:                                               ; preds = %30
  %32 = load i32, ptr %12, align 4
  %33 = add i32 %32, 1
  store i32 %33, ptr %12, align 4
  br label %16, !llvm.loop !4

34:                                               ; preds = %29, %16
  %35 = load i32, ptr %12, align 4
  %36 = load i32, ptr %7, align 4
  %37 = icmp eq i32 %35, %36
  br i1 %37, label %38, label %45

38:                                               ; preds = %34
  %39 = load i32, ptr %6, align 4
  %40 = load i32, ptr %7, align 4
  %41 = load ptr, ptr %8, align 8
  %42 = load i32, ptr %9, align 4
  %43 = load i64, ptr %10, align 8
  %44 = load i64, ptr %11, align 8
  call void @TransactionIdSetPageStatus(i32 noundef %39, i32 noundef %40, ptr noundef %41, i32 noundef %42, i64 noundef %43, i64 noundef %44, i1 noundef zeroext true)
  br label %76

45:                                               ; preds = %34
  call void @llvm.lifetime.start.p0(i64 4, ptr %13) #8
  %46 = load i32, ptr %12, align 4
  store i32 %46, ptr %13, align 4
  %47 = load i32, ptr %9, align 4
  %48 = icmp eq i32 %47, 1
  br i1 %48, label %49, label %58

49:                                               ; preds = %45
  %50 = load i32, ptr %7, align 4
  %51 = load i32, ptr %13, align 4
  %52 = sub i32 %50, %51
  %53 = load ptr, ptr %8, align 8
  %54 = load i32, ptr %13, align 4
  %55 = sext i32 %54 to i64
  %56 = getelementptr inbounds i32, ptr %53, i64 %55
  %57 = load i64, ptr %10, align 8
  call void @set_status_by_pages(i32 noundef %52, ptr noundef %56, i32 noundef 3, i64 noundef %57)
  br label %58

58:                                               ; preds = %49, %45
  %59 = load i32, ptr %6, align 4
  %60 = call i64 @TransactionIdToPage(i32 noundef %59)
  store i64 %60, ptr %11, align 8
  %61 = load i32, ptr %6, align 4
  %62 = load i32, ptr %13, align 4
  %63 = load ptr, ptr %8, align 8
  %64 = load i32, ptr %9, align 4
  %65 = load i64, ptr %10, align 8
  %66 = load i64, ptr %11, align 8
  call void @TransactionIdSetPageStatus(i32 noundef %61, i32 noundef %62, ptr noundef %63, i32 noundef %64, i64 noundef %65, i64 noundef %66, i1 noundef zeroext false)
  %67 = load i32, ptr %7, align 4
  %68 = load i32, ptr %13, align 4
  %69 = sub i32 %67, %68
  %70 = load ptr, ptr %8, align 8
  %71 = load i32, ptr %13, align 4
  %72 = sext i32 %71 to i64
  %73 = getelementptr inbounds i32, ptr %70, i64 %72
  %74 = load i32, ptr %9, align 4
  %75 = load i64, ptr %10, align 8
  call void @set_status_by_pages(i32 noundef %69, ptr noundef %73, i32 noundef %74, i64 noundef %75)
  call void @llvm.lifetime.end.p0(i64 4, ptr %13) #8
  br label %76

76:                                               ; preds = %58, %38
  call void @llvm.lifetime.end.p0(i64 4, ptr %12) #8
  call void @llvm.lifetime.end.p0(i64 8, ptr %11) #8
  ret void
}