; Function Attrs: nounwind uwtable
define dso_local void @TransactionIdSetTreeStatus(i32 noundef %0, i32 noundef %1, ptr noundef readonly captures(none) %2, i32 noundef %3, i64 noundef %4) local_unnamed_addr #0 {
  %6 = lshr i32 %0, 15
  %7 = zext nneg i32 %6 to i64
  %8 = icmp sgt i32 %1, 0
  br i1 %8, label %.lr.ph, label %._crit_edge

.lr.ph:                                           ; preds = %5, %13
  %.070 = phi i32 [ %14, %13 ], [ 0, %5 ]
  %9 = zext nneg i32 %.070 to i64
  %10 = getelementptr inbounds nuw i32, ptr %2, i64 %9
  %11 = load i32, ptr %10, align 4
  %12 = lshr i32 %11, 15
  %.not = icmp eq i32 %12, %6
  br i1 %.not, label %13, label %._crit_edge

13:                                               ; preds = %.lr.ph
  %14 = add nuw nsw i32 %.070, 1
  %exitcond.not = icmp eq i32 %14, %1
  br i1 %exitcond.not, label %._crit_edge.thread, label %.lr.ph, !llvm.loop !4

._crit_edge:                                      ; preds = %.lr.ph, %5
  %.0.lcssa = phi i32 [ 0, %5 ], [ %.070, %.lr.ph ]
  %15 = icmp eq i32 %.0.lcssa, %1
  br i1 %15, label %._crit_edge.thread, label %16

._crit_edge.thread:                               ; preds = %13, %._crit_edge
  tail call fastcc void @TransactionIdSetPageStatus(i32 noundef %0, i32 noundef %1, ptr noundef %2, i32 noundef %3, i64 noundef %4, i64 noundef %7, i1 noundef zeroext true)
  br label %set_status_by_pages.exit

16:                                               ; preds = %._crit_edge
  %17 = icmp eq i32 %3, 1
  br i1 %17, label %.split35, label %.split

.split:                                           ; preds = %16
  %18 = load i16, ptr getelementptr inbounds nuw (i8, ptr @XactCtlData, i64 8), align 8
  %.rhs.trunc.i = zext i16 %18 to i32
  %19 = urem i32 %6, %.rhs.trunc.i
  %20 = load ptr, ptr @XactCtlData, align 8
  %21 = getelementptr inbounds nuw i8, ptr %20, i64 56
  %22 = load ptr, ptr %21, align 8
  %23 = shl nuw nsw i32 %19, 7
  %24 = zext nneg i32 %23 to i64
  %25 = getelementptr inbounds nuw i8, ptr %22, i64 %24
  %26 = tail call zeroext i1 @LWLockAcquire(ptr noundef %25, i32 noundef 0) #9
  tail call fastcc void @TransactionIdSetPageStatusInternal(i32 noundef %0, i32 noundef %.0.lcssa, ptr noundef readonly %2, i32 noundef %3, i64 noundef %4, i64 noundef range(i64 0, 131072) %7)
  tail call void @LWLockRelease(ptr noundef %25) #9
  %27 = sub i32 %1, %.0.lcssa
  %28 = zext nneg i32 %.0.lcssa to i64
  %29 = getelementptr inbounds nuw i32, ptr %2, i64 %28
  %30 = icmp sgt i32 %27, 0
  br i1 %30, label %.preheader.preheader.i, label %set_status_by_pages.exit

.preheader.preheader.i:                           ; preds = %.split
  %31 = load i32, ptr %29, align 4
  %32 = lshr i32 %31, 15
  %33 = zext nneg i32 %32 to i64
  br label %.preheader.i

.preheader.i:                                     ; preds = %45, %.preheader.preheader.i
  %.026.i = phi i64 [ %.lcssa.i, %45 ], [ %33, %.preheader.preheader.i ]
  %.01925.i = phi i32 [ %.2.i, %45 ], [ 0, %.preheader.preheader.i ]
  %34 = add nsw i32 %.01925.i, 1
  %smax.i = tail call i32 @llvm.smax.i32(i32 %27, i32 %34)
  %35 = sub i32 %smax.i, %.01925.i
  br label %36

36:                                               ; preds = %42, %.preheader.i
  %.120.i = phi i32 [ %44, %42 ], [ %.01925.i, %.preheader.i ]
  %.018.i = phi i32 [ %43, %42 ], [ 0, %.preheader.i ]
  %37 = sext i32 %.120.i to i64
  %38 = getelementptr inbounds i32, ptr %29, i64 %37
  %39 = load i32, ptr %38, align 4
  %40 = lshr i32 %39, 15
  %41 = zext nneg i32 %40 to i64
  %.not.i = icmp eq i64 %.026.i, %41
  br i1 %.not.i, label %42, label %45

42:                                               ; preds = %36
  %43 = add i32 %.018.i, 1
  %44 = add i32 %.120.i, 1
  %exitcond.not.i = icmp eq i32 %43, %35
  br i1 %exitcond.not.i, label %45, label %36, !llvm.loop !6

45:                                               ; preds = %42, %36
  %.lcssa.i = phi i64 [ %41, %36 ], [ %.026.i, %42 ]
  %.2.i = phi i32 [ %.120.i, %36 ], [ %smax.i, %42 ]
  %.1.i = phi i32 [ %.018.i, %36 ], [ %35, %42 ]
  %46 = sext i32 %.01925.i to i64
  %47 = getelementptr inbounds i32, ptr %29, i64 %46
  %48 = load i16, ptr getelementptr inbounds nuw (i8, ptr @XactCtlData, i64 8), align 8
  %.lhs.trunc.i.i = trunc nuw nsw i64 %.026.i to i32
  %.rhs.trunc.i.i = zext i16 %48 to i32
  %49 = urem i32 %.lhs.trunc.i.i, %.rhs.trunc.i.i
  %50 = load ptr, ptr @XactCtlData, align 8
  %51 = getelementptr inbounds nuw i8, ptr %50, i64 56
  %52 = load ptr, ptr %51, align 8
  %53 = shl nuw nsw i32 %49, 7
  %54 = zext nneg i32 %53 to i64
  %55 = getelementptr inbounds nuw i8, ptr %52, i64 %54
  %56 = tail call zeroext i1 @LWLockAcquire(ptr noundef %55, i32 noundef 0) #9
  tail call fastcc void @TransactionIdSetPageStatusInternal(i32 noundef 0, i32 noundef %.1.i, ptr noundef nonnull readonly %47, i32 noundef %3, i64 noundef %4, i64 noundef range(i64 0, 131072) %.026.i)
  tail call void @LWLockRelease(ptr noundef %55) #9
  %57 = icmp slt i32 %.2.i, %27
  br i1 %57, label %.preheader.i, label %set_status_by_pages.exit, !llvm.loop !7

.split35:                                         ; preds = %16
  %58 = sub i32 %1, %.0.lcssa
  %59 = zext nneg i32 %.0.lcssa to i64
  %60 = getelementptr inbounds nuw i32, ptr %2, i64 %59
  %61 = icmp sgt i32 %58, 0
  br i1 %61, label %.preheader.preheader.i38, label %set_status_by_pages.exit52

.preheader.preheader.i38:                         ; preds = %.split35
  %62 = load i32, ptr %60, align 4
  %63 = lshr i32 %62, 15
  %64 = zext nneg i32 %63 to i64
  br label %.preheader.i39

.preheader.i39:                                   ; preds = %76, %.preheader.preheader.i38
  %.026.i40 = phi i64 [ %.lcssa.i46, %76 ], [ %64, %.preheader.preheader.i38 ]
  %.01925.i41 = phi i32 [ %.2.i47, %76 ], [ 0, %.preheader.preheader.i38 ]
  %65 = add nsw i32 %.01925.i41, 1
  %smax.i42 = tail call i32 @llvm.smax.i32(i32 %58, i32 %65)
  %66 = sub i32 %smax.i42, %.01925.i41
  br label %67

67:                                               ; preds = %73, %.preheader.i39
  %.120.i43 = phi i32 [ %75, %73 ], [ %.01925.i41, %.preheader.i39 ]
  %.018.i44 = phi i32 [ %74, %73 ], [ 0, %.preheader.i39 ]
  %68 = sext i32 %.120.i43 to i64
  %69 = getelementptr inbounds i32, ptr %60, i64 %68
  %70 = load i32, ptr %69, align 4
  %71 = lshr i32 %70, 15
  %72 = zext nneg i32 %71 to i64
  %.not.i45 = icmp eq i64 %.026.i40, %72
  br i1 %.not.i45, label %73, label %76

73:                                               ; preds = %67
  %74 = add i32 %.018.i44, 1
  %75 = add i32 %.120.i43, 1
  %exitcond.not.i51 = icmp eq i32 %74, %66
  br i1 %exitcond.not.i51, label %76, label %67, !llvm.loop !6

76:                                               ; preds = %73, %67
  %.lcssa.i46 = phi i64 [ %72, %67 ], [ %.026.i40, %73 ]
  %.2.i47 = phi i32 [ %.120.i43, %67 ], [ %smax.i42, %73 ]
  %.1.i48 = phi i32 [ %.018.i44, %67 ], [ %66, %73 ]
  %77 = sext i32 %.01925.i41 to i64
  %78 = getelementptr inbounds i32, ptr %60, i64 %77
  %79 = load i16, ptr getelementptr inbounds nuw (i8, ptr @XactCtlData, i64 8), align 8
  %.lhs.trunc.i.i49 = trunc nuw nsw i64 %.026.i40 to i32
  %.rhs.trunc.i.i50 = zext i16 %79 to i32
  %80 = urem i32 %.lhs.trunc.i.i49, %.rhs.trunc.i.i50
  %81 = load ptr, ptr @XactCtlData, align 8
  %82 = getelementptr inbounds nuw i8, ptr %81, i64 56
  %83 = load ptr, ptr %82, align 8
  %84 = shl nuw nsw i32 %80, 7
  %85 = zext nneg i32 %84 to i64
  %86 = getelementptr inbounds nuw i8, ptr %83, i64 %85
  %87 = tail call zeroext i1 @LWLockAcquire(ptr noundef %86, i32 noundef 0) #9
  tail call fastcc void @TransactionIdSetPageStatusInternal(i32 noundef 0, i32 noundef %.1.i48, ptr noundef nonnull readonly %78, i32 noundef 3, i64 noundef %4, i64 noundef range(i64 0, 131072) %.026.i40)
  tail call void @LWLockRelease(ptr noundef %86) #9
  %88 = icmp slt i32 %.2.i47, %58
  br i1 %88, label %.preheader.i39, label %set_status_by_pages.exit52, !llvm.loop !7

set_status_by_pages.exit52:                       ; preds = %76, %.split35
  %89 = load i16, ptr getelementptr inbounds nuw (i8, ptr @XactCtlData, i64 8), align 8
  %.rhs.trunc.i53 = zext i16 %89 to i32
  %90 = urem i32 %6, %.rhs.trunc.i53
  %91 = load ptr, ptr @XactCtlData, align 8
  %92 = getelementptr inbounds nuw i8, ptr %91, i64 56
  %93 = load ptr, ptr %92, align 8
  %94 = shl nuw nsw i32 %90, 7
  %95 = zext nneg i32 %94 to i64
  %96 = getelementptr inbounds nuw i8, ptr %93, i64 %95
  %97 = tail call zeroext i1 @LWLockAcquire(ptr noundef %96, i32 noundef 0) #9
  tail call fastcc void @TransactionIdSetPageStatusInternal(i32 noundef %0, i32 noundef %.0.lcssa, ptr noundef readonly %2, i32 noundef 1, i64 noundef %4, i64 noundef range(i64 0, 131072) %7)
  tail call void @LWLockRelease(ptr noundef %96) #9
  br i1 %61, label %.preheader.preheader.i54, label %set_status_by_pages.exit

.preheader.preheader.i54:                         ; preds = %set_status_by_pages.exit52
  %98 = load i32, ptr %60, align 4
  %99 = lshr i32 %98, 15
  %100 = zext nneg i32 %99 to i64
  br label %.preheader.i55

.preheader.i55:                                   ; preds = %112, %.preheader.preheader.i54
  %.026.i56 = phi i64 [ %.lcssa.i62, %112 ], [ %100, %.preheader.preheader.i54 ]
  %.01925.i57 = phi i32 [ %.2.i63, %112 ], [ 0, %.preheader.preheader.i54 ]
  %101 = add nsw i32 %.01925.i57, 1
  %smax.i58 = tail call i32 @llvm.smax.i32(i32 %58, i32 %101)
  %102 = sub i32 %smax.i58, %.01925.i57
  br label %103

103:                                              ; preds = %109, %.preheader.i55
  %.120.i59 = phi i32 [ %111, %109 ], [ %.01925.i57, %.preheader.i55 ]
  %.018.i60 = phi i32 [ %110, %109 ], [ 0, %.preheader.i55 ]
  %104 = sext i32 %.120.i59 to i64
  %105 = getelementptr inbounds i32, ptr %60, i64 %104
  %106 = load i32, ptr %105, align 4
  %107 = lshr i32 %106, 15
  %108 = zext nneg i32 %107 to i64
  %.not.i61 = icmp eq i64 %.026.i56, %108
  br i1 %.not.i61, label %109, label %112

109:                                              ; preds = %103
  %110 = add i32 %.018.i60, 1
  %111 = add i32 %.120.i59, 1
  %exitcond.not.i67 = icmp eq i32 %110, %102
  br i1 %exitcond.not.i67, label %112, label %103, !llvm.loop !6

112:                                              ; preds = %109, %103
  %.lcssa.i62 = phi i64 [ %108, %103 ], [ %.026.i56, %109 ]
  %.2.i63 = phi i32 [ %.120.i59, %103 ], [ %smax.i58, %109 ]
  %.1.i64 = phi i32 [ %.018.i60, %103 ], [ %102, %109 ]
  %113 = sext i32 %.01925.i57 to i64
  %114 = getelementptr inbounds i32, ptr %60, i64 %113
  %115 = load i16, ptr getelementptr inbounds nuw (i8, ptr @XactCtlData, i64 8), align 8
  %.lhs.trunc.i.i65 = trunc nuw nsw i64 %.026.i56 to i32
  %.rhs.trunc.i.i66 = zext i16 %115 to i32
  %116 = urem i32 %.lhs.trunc.i.i65, %.rhs.trunc.i.i66
  %117 = load ptr, ptr @XactCtlData, align 8
  %118 = getelementptr inbounds nuw i8, ptr %117, i64 56
  %119 = load ptr, ptr %118, align 8
  %120 = shl nuw nsw i32 %116, 7
  %121 = zext nneg i32 %120 to i64
  %122 = getelementptr inbounds nuw i8, ptr %119, i64 %121
  %123 = tail call zeroext i1 @LWLockAcquire(ptr noundef %122, i32 noundef 0) #9
  tail call fastcc void @TransactionIdSetPageStatusInternal(i32 noundef 0, i32 noundef %.1.i64, ptr noundef nonnull readonly %114, i32 noundef 1, i64 noundef %4, i64 noundef range(i64 0, 131072) %.026.i56)
  tail call void @LWLockRelease(ptr noundef %122) #9
  %124 = icmp slt i32 %.2.i63, %58
  br i1 %124, label %.preheader.i55, label %set_status_by_pages.exit, !llvm.loop !7

set_status_by_pages.exit:                         ; preds = %45, %112, %set_status_by_pages.exit52, %.split, %._crit_edge.thread
  ret void
}